target datalayout = "e-m:e-p270:32:32-p271:32:32-p272:64:64-i64:64-i128:128-f80:128-n8:16:32:64-S128"
target triple = "x86_64-pc-linux-gnu"

%struct.expert_field = type { i32, i32 }
%struct._MAD = type { i8, i8, i8, i8, i16, i8, i8, i64, i16, i16, i32 }

@hf_opa_Aggregate = internal global i32 0, align 4
@hf_opa_Aggregate_AttributeID = internal global i32 0, align 4
@hf_opa_Aggregate_Error = internal global i32 0, align 4
@hf_opa_Aggregate_RequestLength = internal global i32 0, align 4
@ett_aggregate = internal global i32 0, align 4
@ei_opa_aggregate_error = internal global %struct.expert_field zeroinitializer, align 4
@.str.2300 = private unnamed_addr constant [17 x i8] c"Aggregate %u: %s\00", align 1
@.str.2301 = private unnamed_addr constant [33 x i8] c"Unknown Attribute Type! (0x%02x)\00", align 1
@.str.2302 = private unnamed_addr constant [12 x i8] c" (%u Bytes)\00", align 1

; Function Attrs: null_pointer_is_valid sspstrong uwtable
define internal i32 @parse_Aggregate(ptr noundef %0, ptr noundef %1, ptr noundef %2, ptr noundef %3) #0 {
  %5 = alloca i32, align 4
  %6 = alloca ptr, align 8
  %7 = alloca ptr, align 8
  %8 = alloca ptr, align 8
  %9 = alloca ptr, align 8
  %10 = alloca i32, align 4
  %11 = alloca i32, align 4
  %12 = alloca i32, align 4
  %13 = alloca i32, align 4
  %14 = alloca i32, align 4
  %15 = alloca i16, align 2
  %16 = alloca i8, align 1
  %17 = alloca ptr, align 8
  %18 = alloca ptr, align 8
  %19 = alloca ptr, align 8
  %20 = alloca ptr, align 8
  %21 = alloca i32, align 4
  store ptr %0, ptr %6, align 8
  store ptr %1, ptr %7, align 8
  store ptr %2, ptr %8, align 8
  store ptr %3, ptr %9, align 8
  call void @llvm.lifetime.start.p0(i64 4, ptr %10) #7
  call void @llvm.lifetime.start.p0(i64 4, ptr %11) #7
  call void @llvm.lifetime.start.p0(i64 4, ptr %12) #7
  call void @llvm.lifetime.start.p0(i64 4, ptr %13) #7
  %22 = load ptr, ptr %8, align 8
  %23 = load i32, ptr %22, align 4
  store i32 %23, ptr %13, align 4
  call void @llvm.lifetime.start.p0(i64 4, ptr %14) #7
  call void @llvm.lifetime.start.p0(i64 2, ptr %15) #7
  store i16 0, ptr %15, align 2
  call void @llvm.lifetime.start.p0(i64 1, ptr %16) #7
  store i8 0, ptr %16, align 1
  call void @llvm.lifetime.start.p0(i64 8, ptr %17) #7
  call void @llvm.lifetime.start.p0(i64 8, ptr %18) #7
  call void @llvm.lifetime.start.p0(i64 8, ptr %19) #7
  call void @llvm.lifetime.start.p0(i64 8, ptr %20) #7
  %24 = load ptr, ptr %6, align 8
  %25 = icmp ne ptr %24, null
  br i1 %25, label %29, label %26

26:                                               ; preds = %4
  %27 = load ptr, ptr %8, align 8
  %28 = load i32, ptr %27, align 4
  store i32 %28, ptr %5, align 4
  store i32 1, ptr %21, align 4
  br label %162

29:                                               ; preds = %4
  %30 = load ptr, ptr %9, align 8
  %31 = getelementptr inbounds nuw %struct._MAD, ptr %30, i32 0, i32 10
  %32 = load i32, ptr %31, align 4
  %33 = and i32 %32, 255
  store i32 %33, ptr %12, align 4
  store i32 0, ptr %10, align 4
  br label %34

34:                                               ; preds = %157, %29
  %35 = load i32, ptr %10, align 4
  %36 = load i32, ptr %12, align 4
  %37 = icmp slt i32 %35, %36
  br i1 %37, label %38, label %160

38:                                               ; preds = %34
  %39 = load ptr, ptr %7, align 8
  %40 = load i32, ptr %13, align 4
  %41 = add i32 %40, 3
  %42 = call zeroext i8 @tvb_get_uint8(ptr noundef %39, i32 noundef %41)
  %43 = zext i8 %42 to i32
  %44 = and i32 %43, 127
  %45 = mul i32 %44, 8
  store i32 %45, ptr %11, align 4
  %46 = load i32, ptr %10, align 4
  %47 = load i32, ptr %12, align 4
  %48 = sub i32 %47, 1
  %49 = icmp eq i32 %46, %48
  br i1 %49, label %50, label %62

50:                                               ; preds = %38
  %51 = load ptr, ptr %9, align 8
  %52 = getelementptr inbounds nuw %struct._MAD, ptr %51, i32 0, i32 3
  %53 = load i8, ptr %52, align 1
  %54 = zext i8 %53 to i32
  %55 = icmp eq i32 %54, 1
  br i1 %55, label %56, label %62

56:                                               ; preds = %50
  %57 = load ptr, ptr %6, align 8
  %58 = load i32, ptr @hf_opa_Aggregate, align 4
  %59 = load ptr, ptr %7, align 8
  %60 = load i32, ptr %13, align 4
  %61 = call ptr @proto_tree_add_item(ptr noundef %57, i32 noundef %58, ptr noundef %59, i32 noundef %60, i32 noundef 8, i32 noundef 0)
  store ptr %61, ptr %17, align 8
  br label %70

62:                                               ; preds = %50, %38
  %63 = load ptr, ptr %6, align 8
  %64 = load i32, ptr @hf_opa_Aggregate, align 4
  %65 = load ptr, ptr %7, align 8
  %66 = load i32, ptr %13, align 4
  %67 = load i32, ptr %11, align 4
  %68 = add i32 %67, 8
  %69 = call ptr @proto_tree_add_item(ptr noundef %63, i32 noundef %64, ptr noundef %65, i32 noundef %66, i32 noundef %68, i32 noundef 0)
  store ptr %69, ptr %17, align 8
  br label %70

70:                                               ; preds = %62, %56
  %71 = load ptr, ptr %17, align 8
  %72 = load i32, ptr @ett_aggregate, align 4
  %73 = call ptr @proto_item_add_subtree(ptr noundef %71, i32 noundef %72)
  store ptr %73, ptr %20, align 8
  %74 = load ptr, ptr %20, align 8
  %75 = load i32, ptr @hf_opa_Aggregate_AttributeID, align 4
  %76 = load ptr, ptr %7, align 8
  %77 = load i32, ptr %13, align 4
  %78 = call ptr @proto_tree_add_item(ptr noundef %74, i32 noundef %75, ptr noundef %76, i32 noundef %77, i32 noundef 2, i32 noundef 0)
  %79 = load ptr, ptr %7, align 8
  %80 = load i32, ptr %13, align 4
  %81 = call zeroext i16 @tvb_get_ntohs(ptr noundef %79, i32 noundef %80)
  store i16 %81, ptr %15, align 2
  %82 = load i32, ptr %13, align 4
  %83 = add i32 %82, 2
  store i32 %83, ptr %13, align 4
  %84 = load ptr, ptr %17, align 8
  %85 = load i32, ptr %10, align 4
  %86 = add i32 %85, 1
  %87 = load i16, ptr %15, align 2
  %88 = zext i16 %87 to i32
  %89 = call ptr @val_to_str(i32 noundef %88, ptr noundef @SUBM_Attributes, ptr noundef @.str.2301)
  call void (ptr, ptr, ...) @proto_item_set_text(ptr noundef %84, ptr noundef @.str.2300, i32 noundef %86, ptr noundef %89)
  %90 = load ptr, ptr %7, align 8
  %91 = load i32, ptr %13, align 4
  %92 = mul i32 %91, 8
  %93 = call i32 @tvb_get_bits(ptr noundef %90, i32 noundef %92, i32 noundef 1, i32 noundef 0)
  %94 = icmp ne i32 %93, 0
  %95 = zext i1 %94 to i8
  store i8 %95, ptr %16, align 1
  %96 = load ptr, ptr %20, align 8
  %97 = load i32, ptr @hf_opa_Aggregate_Error, align 4
  %98 = load ptr, ptr %7, align 8
  %99 = load i32, ptr %13, align 4
  %100 = call ptr @proto_tree_add_item(ptr noundef %96, i32 noundef %97, ptr noundef %98, i32 noundef %99, i32 noundef 2, i32 noundef 0)
  store ptr %100, ptr %19, align 8
  %101 = load i8, ptr %16, align 1, !range !8, !noundef !9
  %102 = trunc i8 %101 to i1
  br i1 %102, label %103, label %106

103:                                              ; preds = %70
  %104 = load ptr, ptr %19, align 8
  %105 = call ptr @expert_add_info(ptr noundef null, ptr noundef %104, ptr noundef @ei_opa_aggregate_error)
  br label %106

106:                                              ; preds = %103, %70
  %107 = load ptr, ptr %20, align 8
  %108 = load i32, ptr @hf_opa_Aggregate_RequestLength, align 4
  %109 = load ptr, ptr %7, align 8
  %110 = load i32, ptr %13, align 4
  %111 = call ptr @proto_tree_add_item(ptr noundef %107, i32 noundef %108, ptr noundef %109, i32 noundef %110, i32 noundef 2, i32 noundef 0)
  store ptr %111, ptr %18, align 8
  %112 = load ptr, ptr %18, align 8
  %113 = load i32, ptr %11, align 4
  call void (ptr, ptr, ...) @proto_item_append_text(ptr noundef %112, ptr noundef @.str.2302, i32 noundef %113)
  %114 = load i32, ptr %13, align 4
  %115 = add i32 %114, 2
  store i32 %115, ptr %13, align 4
  %116 = load ptr, ptr %7, align 8
  %117 = load i32, ptr %13, align 4
  %118 = call i32 @tvb_get_ntohl(ptr noundef %116, i32 noundef %117)
  %119 = load ptr, ptr %9, align 8
  %120 = getelementptr inbounds nuw %struct._MAD, ptr %119, i32 0, i32 10
  store i32 %118, ptr %120, align 4
  %121 = load i16, ptr %15, align 2
  %122 = load ptr, ptr %9, align 8
  %123 = getelementptr inbounds nuw %struct._MAD, ptr %122, i32 0, i32 8
  store i16 %121, ptr %123, align 8
  %124 = load ptr, ptr %20, align 8
  %125 = load ptr, ptr %7, align 8
  %126 = load ptr, ptr %9, align 8
  %127 = call i32 @parse_MAD_AttributeModifier(ptr noundef %124, ptr noundef %125, ptr noundef %13, ptr noundef %126)
  store i32 %127, ptr %13, align 4
  %128 = load i32, ptr %10, align 4
  %129 = load i32, ptr %12, align 4
  %130 = sub i32 %129, 1
  %131 = icmp eq i32 %128, %130
  br i1 %131, label %132, label %139

132:                                              ; preds = %106
  %133 = load ptr, ptr %9, align 8
  %134 = getelementptr inbounds nuw %struct._MAD, ptr %133, i32 0, i32 3
  %135 = load i8, ptr %134, align 1
  %136 = zext i8 %135 to i32
  %137 = icmp eq i32 %136, 1
  br i1 %137, label %138, label %139

138:                                              ; preds = %132
  br label %156

139:                                              ; preds = %132, %106
  %140 = load i32, ptr %13, align 4
  store i32 %140, ptr %14, align 4
  %141 = load ptr, ptr %20, align 8
  %142 = load ptr, ptr %7, align 8
  %143 = load ptr, ptr %9, align 8
  %144 = load i16, ptr %15, align 2
  %145 = call zeroext i1 @call_SUBM_Parser(ptr noundef %141, ptr noundef %142, ptr noundef %13, ptr noundef %143, i16 noundef zeroext %144)
  %146 = load i32, ptr %13, align 4
  %147 = load i32, ptr %14, align 4
  %148 = load i32, ptr %11, align 4
  %149 = add i32 %147, %148
  %150 = icmp ne i32 %146, %149
  br i1 %150, label %151, label %155

151:                                              ; preds = %139
  %152 = load i32, ptr %14, align 4
  %153 = load i32, ptr %11, align 4
  %154 = add i32 %152, %153
  store i32 %154, ptr %13, align 4
  br label %155

155:                                              ; preds = %151, %139
  br label %156

156:                                              ; preds = %155, %138
  br label %157

157:                                              ; preds = %156
  %158 = load i32, ptr %10, align 4
  %159 = add i32 %158, 1
  store i32 %159, ptr %10, align 4
  br label %34, !llvm.loop !11

160:                                              ; preds = %34
  %161 = load i32, ptr %13, align 4
  store i32 %161, ptr %5, align 4
  store i32 1, ptr %21, align 4
  br label %162

162:                                              ; preds = %160, %26
  call void @llvm.lifetime.end.p0(i64 8, ptr %20) #7
  call void @llvm.lifetime.end.p0(i64 8, ptr %19) #7
  call void @llvm.lifetime.end.p0(i64 8, ptr %18) #7
  call void @llvm.lifetime.end.p0(i64 8, ptr %17) #7
  call void @llvm.lifetime.end.p0(i64 1, ptr %16) #7
  call void @llvm.lifetime.end.p0(i64 2, ptr %15) #7
  call void @llvm.lifetime.end.p0(i64 4, ptr %14) #7
  call void @llvm.lifetime.end.p0(i64 4, ptr %13) #7
  call void @llvm.lifetime.end.p0(i64 4, ptr %12) #7
  call void @llvm.lifetime.end.p0(i64 4, ptr %11) #7
  call void @llvm.lifetime.end.p0(i64 4, ptr %10) #7
  %163 = load i32, ptr %5, align 4
  ret i32 %163
}

; Function Attrs: null_pointer_is_valid sspstrong uwtable
define internal zeroext i1 @parse_SUBM_Attribute(ptr noundef %0, ptr noundef %1, ptr noundef %2, ptr noundef %3) #0 {
  %5 = alloca i1, align 1
  %6 = alloca ptr, align 8
  %7 = alloca ptr, align 8
  %8 = alloca ptr, align 8
  %9 = alloca ptr, align 8
  %10 = alloca i32, align 4
  %11 = alloca i32, align 4
  store ptr %0, ptr %6, align 8
  store ptr %1, ptr %7, align 8
  store ptr %2, ptr %8, align 8
  store ptr %3, ptr %9, align 8
  call void @llvm.lifetime.start.p0(i64 4, ptr %10) #7
  %12 = load ptr, ptr %8, align 8
  %13 = load i32, ptr %12, align 4
  store i32 %13, ptr %10, align 4
  %14 = load ptr, ptr %9, align 8
  %15 = getelementptr inbounds nuw %struct._MAD, ptr %14, i32 0, i32 8
  %16 = load i16, ptr %15, align 8
  %17 = zext i16 %16 to i32
  %18 = icmp eq i32 %17, 128
  br i1 %18, label %19, label %25

19:                                               ; preds = %4
  %20 = load ptr, ptr %6, align 8
  %21 = load ptr, ptr %7, align 8
  %22 = load ptr, ptr %9, align 8
  %23 = call i32 @parse_Aggregate(ptr noundef %20, ptr noundef %21, ptr noundef %10, ptr noundef %22)
  %24 = load ptr, ptr %8, align 8
  store i32 %23, ptr %24, align 4
  store i1 true, ptr %5, align 1
  store i32 1, ptr %11, align 4
  br label %34

25:                                               ; preds = %4
  %26 = load ptr, ptr %6, align 8
  %27 = load ptr, ptr %7, align 8
  %28 = load ptr, ptr %8, align 8
  %29 = load ptr, ptr %9, align 8
  %30 = load ptr, ptr %9, align 8
  %31 = getelementptr inbounds nuw %struct._MAD, ptr %30, i32 0, i32 8
  %32 = load i16, ptr %31, align 8
  %33 = call zeroext i1 @call_SUBM_Parser(ptr noundef %26, ptr noundef %27, ptr noundef %28, ptr noundef %29, i16 noundef zeroext %32)
  store i1 %33, ptr %5, align 1
  store i32 1, ptr %11, align 4
  br label %34

34:                                               ; preds = %25, %19
  call void @llvm.lifetime.end.p0(i64 4, ptr %10) #7
  %35 = load i1, ptr %5, align 1
  ret i1 %35
}