; Function Attrs: null_pointer_is_valid sspstrong uwtable
define internal fastcc noundef zeroext i1 @parse_SUBM_Attribute(ptr noundef %0, ptr noundef %1, ptr noundef captures(none) %2, ptr noundef captures(none) %3) unnamed_addr #0 {
  %5 = alloca i32, align 4
  %6 = load i32, ptr %2, align 4
  %7 = getelementptr inbounds nuw i8, ptr %3, i64 16
  %8 = load i16, ptr %7, align 8
  %9 = icmp eq i16 %8, 128
  br i1 %9, label %10, label %65

10:                                               ; preds = %4
  call void @llvm.lifetime.start.p0(i64 4, ptr nonnull %5) #5
  %.not.i = icmp eq ptr %0, null
  br i1 %.not.i, label %parse_Aggregate.exit, label %11

11:                                               ; preds = %10
  %12 = getelementptr inbounds nuw i8, ptr %3, i64 20
  %13 = load i32, ptr %12, align 4
  %14 = and i32 %13, 255
  %.not58.i = icmp eq i32 %14, 0
  br i1 %.not58.i, label %parse_Aggregate.exit, label %.lr.ph.i

.lr.ph.i:                                         ; preds = %11
  %15 = add nsw i32 %14, -1
  %16 = getelementptr inbounds nuw i8, ptr %3, i64 3
  br label %17

17:                                               ; preds = %63, %.lr.ph.i
  %18 = phi i32 [ %6, %.lr.ph.i ], [ %64, %63 ]
  %.05057.i = phi i32 [ 0, %.lr.ph.i ], [ %42, %63 ]
  %19 = add i32 %18, 3
  %20 = tail call zeroext i8 @tvb_get_uint8(ptr noundef %1, i32 noundef %19)
  %21 = and i8 %20, 127
  %22 = zext nneg i8 %21 to i32
  %23 = shl nuw nsw i32 %22, 3
  %24 = icmp eq i32 %.05057.i, %15
  br i1 %24, label %25, label %31

25:                                               ; preds = %17
  %26 = load i8, ptr %16, align 1
  %27 = icmp eq i8 %26, 1
  br i1 %27, label %28, label %31

28:                                               ; preds = %25
  %29 = load i32, ptr @hf_opa_Aggregate, align 4
  %30 = tail call ptr @proto_tree_add_item(ptr noundef nonnull %0, i32 noundef %29, ptr noundef %1, i32 noundef %18, i32 noundef 8, i32 noundef 0)
  br label %35

31:                                               ; preds = %25, %17
  %32 = load i32, ptr @hf_opa_Aggregate, align 4
  %33 = add nuw nsw i32 %23, 8
  %34 = tail call ptr @proto_tree_add_item(ptr noundef nonnull %0, i32 noundef %32, ptr noundef %1, i32 noundef %18, i32 noundef %33, i32 noundef 0)
  br label %35

35:                                               ; preds = %31, %28
  %.051.i = phi ptr [ %30, %28 ], [ %34, %31 ]
  %36 = load i32, ptr @ett_aggregate, align 4
  %37 = tail call ptr @proto_item_add_subtree(ptr noundef %.051.i, i32 noundef %36)
  %38 = load i32, ptr @hf_opa_Aggregate_AttributeID, align 4
  %39 = tail call ptr @proto_tree_add_item(ptr noundef %37, i32 noundef %38, ptr noundef %1, i32 noundef %18, i32 noundef 2, i32 noundef 0)
  %40 = tail call zeroext i16 @tvb_get_ntohs(ptr noundef %1, i32 noundef %18)
  %41 = add i32 %18, 2
  %42 = add nuw nsw i32 %.05057.i, 1
  %43 = zext i16 %40 to i32
  %44 = tail call ptr @val_to_str(i32 noundef %43, ptr noundef nonnull @SUBM_Attributes, ptr noundef nonnull @.str.2301)
  tail call void (ptr, ptr, ...) @proto_item_set_text(ptr noundef %.051.i, ptr noundef nonnull @.str.2300, i32 noundef %42, ptr noundef %44)
  %45 = shl i32 %41, 3
  %46 = tail call i32 @tvb_get_bits(ptr noundef %1, i32 noundef %45, i32 noundef 1, i32 noundef 0)
  %.not55.i = icmp eq i32 %46, 0
  %47 = load i32, ptr @hf_opa_Aggregate_Error, align 4
  %48 = tail call ptr @proto_tree_add_item(ptr noundef %37, i32 noundef %47, ptr noundef %1, i32 noundef %41, i32 noundef 2, i32 noundef 0)
  br i1 %.not55.i, label %51, label %49

49:                                               ; preds = %35
  %50 = tail call ptr @expert_add_info(ptr noundef null, ptr noundef %48, ptr noundef nonnull @ei_opa_aggregate_error)
  br label %51

51:                                               ; preds = %49, %35
  %52 = load i32, ptr @hf_opa_Aggregate_RequestLength, align 4
  %53 = tail call ptr @proto_tree_add_item(ptr noundef %37, i32 noundef %52, ptr noundef %1, i32 noundef %41, i32 noundef 2, i32 noundef 0)
  tail call void (ptr, ptr, ...) @proto_item_append_text(ptr noundef %53, ptr noundef nonnull @.str.2302, i32 noundef %23)
  %54 = add i32 %18, 4
  %55 = tail call i32 @tvb_get_ntohl(ptr noundef %1, i32 noundef %54)
  store i32 %55, ptr %12, align 4
  store i16 %40, ptr %7, align 8
  %56 = tail call fastcc i32 @parse_MAD_AttributeModifier(ptr noundef %37, ptr noundef %1, i32 %54, ptr noundef %3)
  store i32 %56, ptr %5, align 4
  br i1 %24, label %57, label %60

57:                                               ; preds = %51
  %58 = load i8, ptr %16, align 1
  %59 = icmp eq i8 %58, 1
  br i1 %59, label %63, label %60

60:                                               ; preds = %57, %51
  %61 = call fastcc zeroext i1 @call_SUBM_Parser(ptr noundef %37, ptr noundef %1, ptr noundef nonnull %5, ptr noundef %3, i16 noundef zeroext %40)
  %62 = add i32 %56, %23
  store i32 %62, ptr %5, align 4
  br label %63

63:                                               ; preds = %60, %57
  %64 = phi i32 [ %62, %60 ], [ %56, %57 ]
  %exitcond.not.i = icmp eq i32 %42, %14
  br i1 %exitcond.not.i, label %parse_Aggregate.exit, label %17, !llvm.loop !20

parse_Aggregate.exit:                             ; preds = %63, %10, %11
  %.0.i = phi i32 [ %6, %10 ], [ %6, %11 ], [ %64, %63 ]
  call void @llvm.lifetime.end.p0(i64 4, ptr nonnull %5) #5
  store i32 %.0.i, ptr %2, align 4
  br label %67

65:                                               ; preds = %4
  %66 = tail call fastcc zeroext i1 @call_SUBM_Parser(ptr noundef %0, ptr noundef %1, ptr noundef %2, ptr noundef %3, i16 noundef zeroext %8)
  br label %67

67:                                               ; preds = %65, %parse_Aggregate.exit
  %.0 = phi i1 [ true, %parse_Aggregate.exit ], [ %66, %65 ]
  ret i1 %.0
}